Certificate:
    Data:
        Version: 3 (0x2)
        Serial Number:
            76:17:b2:03:9b:18:a2:bf:30:a3:d6:b5:ca:4c:d2:1d
        Signature Algorithm: ecdsa-with-SHA512
        Issuer: CN=Easy-DC-CA
        Validity
            Not Before: Apr  8 02:13:25 2022 GMT
            Not After : Mar 23 02:13:25 2025 GMT
        Subject: C=CO, ST=Colombia, L=Bogota, O=Easy-DC.local, OU=Tecnologia, CN=rancher.giovanemere.com/emailAddress=admin@rancher.giovanemere.com.com
        Subject Public Key Info:
            Public Key Algorithm: rsaEncryption
                RSA Public-Key: (2048 bit)
                Modulus:
                    00:bd:b9:c8:23:c4:5b:7e:e0:94:fc:c3:27:d9:b4:
                    a6:05:19:41:71:f0:b6:78:8b:9b:7a:d2:18:fc:80:
                    60:bb:c1:3d:4b:29:08:fc:6f:bb:c5:34:89:86:38:
                    85:9e:ab:ed:db:99:9e:5e:6a:c9:2d:22:4b:59:88:
                    a1:a5:dd:a1:26:4a:8c:77:68:16:ab:f4:a8:1a:46:
                    1d:61:34:c2:0b:8a:09:3d:7c:f0:33:d2:39:f8:a9:
                    f5:3e:6c:a7:b9:4f:1b:49:e1:43:b4:94:cc:4f:85:
                    c5:0d:ff:10:25:77:76:4e:06:cc:a4:3b:ef:ef:43:
                    fc:22:0a:d8:b2:57:e2:1d:a0:8a:be:ba:75:81:13:
                    03:25:2c:18:05:6a:54:93:12:3d:e3:32:dd:a7:34:
                    d4:44:e3:c1:e0:9e:62:05:3d:a0:dd:a7:7d:7c:5c:
                    1c:63:eb:0d:f6:ca:65:b7:6e:28:fc:72:fa:0f:2d:
                    ab:72:45:b9:67:10:07:66:b3:9e:c7:cc:d9:5e:e5:
                    33:27:aa:c8:af:37:7d:71:19:80:65:a0:a8:6e:fe:
                    6c:1e:60:a4:24:24:18:33:68:0e:58:bc:c0:95:7b:
                    8c:b0:93:6e:f1:cd:13:de:a8:87:02:53:09:e5:a7:
                    61:dc:86:27:47:8e:d6:15:bf:12:b7:3b:2b:e5:3f:
                    cf:5f
                Exponent: 65537 (0x10001)
        X509v3 extensions:
            X509v3 Basic Constraints: 
                CA:FALSE
            X509v3 Subject Key Identifier: 
                B4:18:0A:1D:DA:BE:11:13:D0:AC:2D:ED:2F:27:1F:DF:E8:AB:15:00
            X509v3 Authority Key Identifier: 
                keyid:82:55:57:DB:6F:41:B9:7F:D9:22:27:14:D6:1B:D9:FB:73:6B:EA:CB
                DirName:/CN=Easy-DC-CA
                serial:1D:B4:58:1A:FA:EC:F4:4A:10:F4:E5:04:48:1F:2D:34:C3:95:55:3B

            X509v3 Extended Key Usage: 
                TLS Web Server Authentication
            X509v3 Key Usage: 
                Digital Signature, Key Encipherment
            X509v3 Subject Alternative Name: 
                DNS:rancher.giovanemere.com
    Signature Algorithm: ecdsa-with-SHA512
         30:64:02:30:0b:f8:4a:78:25:10:14:a0:6e:a7:1f:1a:66:65:
         c0:57:51:95:f5:ae:10:cb:24:24:79:30:64:c5:27:05:f7:4f:
         a5:12:d2:b3:7c:b1:88:14:15:25:61:31:9e:3d:d2:c7:02:30:
         4e:09:f5:96:6f:c5:97:7f:86:59:ef:46:3c:92:fb:f7:85:55:
         3c:09:04:b3:07:42:a7:66:a0:10:07:13:3d:80:b5:f5:3c:69:
         51:0b:9b:7f:d2:fe:0c:29:38:ac:b2:58
-----BEGIN CERTIFICATE-----
MIIDdjCCAv2gAwIBAgIQdheyA5sYor8wo9a1ykzSHTAKBggqhkjOPQQDBDAVMRMw
EQYDVQQDDApFYXN5LURDLUNBMB4XDTIyMDQwODAyMTMyNVoXDTI1MDMyMzAyMTMy
NVowgbIxCzAJBgNVBAYTAkNPMREwDwYDVQQIDAhDb2xvbWJpYTEPMA0GA1UEBwwG
Qm9nb3RhMRYwFAYDVQQKDA1FYXN5LURDLmxvY2FsMRMwEQYDVQQLDApUZWNub2xv
Z2lhMSAwHgYDVQQDDBdyYW5jaGVyLmdpb3ZhbmVtZXJlLmNvbTEwMC4GCSqGSIb3
DQEJARYhYWRtaW5AcmFuY2hlci5naW92YW5lbWVyZS5jb20uY29tMIIBIjANBgkq
hkiG9w0BAQEFAAOCAQ8AMIIBCgKCAQEAvbnII8RbfuCU/MMn2bSmBRlBcfC2eIub
etIY/IBgu8E9SykI/G+7xTSJhjiFnqvt25meXmrJLSJLWYihpd2hJkqMd2gWq/So
GkYdYTTCC4oJPXzwM9I5+Kn1PmynuU8bSeFDtJTMT4XFDf8QJXd2TgbMpDvv70P8
IgrYslfiHaCKvrp1gRMDJSwYBWpUkxI94zLdpzTUROPB4J5iBT2g3ad9fFwcY+sN
9splt24o/HL6Dy2rckW5ZxAHZrOex8zZXuUzJ6rIrzd9cRmAZaCobv5sHmCkJCQY
M2gOWLzAlXuMsJNu8c0T3qiHAlMJ5adh3IYnR47WFb8Stzsr5T/PXwIDAQABo4HF
MIHCMAkGA1UdEwQCMAAwHQYDVR0OBBYEFLQYCh3avhET0Kwt7S8nH9/oqxUAMFAG
A1UdIwRJMEeAFIJVV9tvQbl/2SInFNYb2ftza+rLoRmkFzAVMRMwEQYDVQQDDApF
YXN5LURDLUNBghQdtFga+uz0ShD05QRIHy00w5VVOzATBgNVHSUEDDAKBggrBgEF
BQcDATALBgNVHQ8EBAMCBaAwIgYDVR0RBBswGYIXcmFuY2hlci5naW92YW5lbWVy
ZS5jb20wCgYIKoZIzj0EAwQDZwAwZAIwC/hKeCUQFKBupx8aZmXAV1GV9a4QyyQk
eTBkxScF90+lEtKzfLGIFBUlYTGePdLHAjBOCfWWb8WXf4ZZ70Y8kvv3hVU8CQSz
B0KnZqAQBxM9gLX1PGlRC5t/0v4MKTisslg=
-----END CERTIFICATE-----
