Certificate:
    Data:
        Version: 3 (0x2)
        Serial Number:
            18:49:35:76:da:2b:af:b1:de:ed:78:bf:2f:ac:ea:4e
        Signature Algorithm: ecdsa-with-SHA512
        Issuer: CN=Easy-DC-CA
        Validity
            Not Before: Sep 13 20:37:49 2022 GMT
            Not After : Aug 28 20:37:49 2025 GMT
        Subject: C=CO, ST=Colombia, L=Bogota, O=Easy-DC.local, OU=Tecnologia, CN=jenkins.giovanemere.minikube.io/emailAddress=admin@jenkins.giovanemere.minikube.io.com
        Subject Public Key Info:
            Public Key Algorithm: rsaEncryption
                RSA Public-Key: (2048 bit)
                Modulus:
                    00:ac:a4:08:4c:a7:1d:19:17:8f:70:89:df:f1:7d:
                    b5:e6:8c:15:3f:d9:51:ef:3e:89:55:42:5c:a0:fc:
                    0d:97:09:5b:d8:7d:cf:82:4d:fb:62:ff:83:2b:04:
                    1b:48:c6:b2:49:4e:8d:98:6d:2d:45:c3:cc:38:a9:
                    b7:cb:a9:4d:24:5e:18:25:d5:f1:ac:d7:a1:55:bb:
                    67:49:47:2e:27:4a:d6:67:26:85:2e:2a:f9:ec:22:
                    65:f9:68:b8:01:d6:43:49:d1:98:6f:ca:74:8b:f8:
                    8d:fb:23:df:70:2e:51:16:26:4d:d5:c2:da:79:f4:
                    00:26:b4:a3:2f:19:1f:c7:f0:95:5a:3b:0d:81:1c:
                    f6:c5:54:29:c5:f8:46:e0:c4:71:76:72:2e:93:0b:
                    ce:03:68:22:f0:8c:80:a1:aa:c8:56:f8:c9:d1:50:
                    99:8c:8f:84:9e:fe:3c:a1:40:9f:75:ac:51:95:8c:
                    45:55:ac:a6:a6:80:d5:6e:76:2b:db:ae:5d:c7:f0:
                    1a:61:74:6a:33:30:9b:fc:96:97:f2:74:cb:13:b8:
                    45:17:5f:64:cc:ee:05:43:7b:31:d0:87:9c:10:0f:
                    19:6d:b7:38:94:4d:3a:bd:2e:9c:a4:ab:c9:b2:5d:
                    c7:3d:01:eb:24:1d:a6:e6:0e:bc:9a:61:93:18:7c:
                    bc:ff
                Exponent: 65537 (0x10001)
        X509v3 extensions:
            X509v3 Basic Constraints: 
                CA:FALSE
            X509v3 Subject Key Identifier: 
                21:47:C1:D7:66:09:7F:9C:C2:5A:71:5E:A1:EF:7A:C1:B8:4A:07:39
            X509v3 Authority Key Identifier: 
                keyid:82:55:57:DB:6F:41:B9:7F:D9:22:27:14:D6:1B:D9:FB:73:6B:EA:CB
                DirName:/CN=Easy-DC-CA
                serial:1D:B4:58:1A:FA:EC:F4:4A:10:F4:E5:04:48:1F:2D:34:C3:95:55:3B

            X509v3 Extended Key Usage: 
                TLS Web Server Authentication
            X509v3 Key Usage: 
                Digital Signature, Key Encipherment
            X509v3 Subject Alternative Name: 
                DNS:jenkins.giovanemere.minikube.io
    Signature Algorithm: ecdsa-with-SHA512
         30:65:02:30:0d:4e:1d:73:d2:c0:60:38:c5:2a:3f:ae:dc:60:
         28:8d:6a:35:06:be:a9:5c:95:cf:f5:ba:8f:39:7c:54:ba:48:
         5d:98:d5:dc:31:4f:e1:e2:dc:af:3d:48:6b:6b:3b:ae:02:31:
         00:be:09:20:28:0a:27:86:65:03:73:ad:ef:4e:77:81:c8:fa:
         f6:d6:34:c0:9f:e6:69:f0:77:6b:c0:21:97:ec:64:7c:b4:a5:
         c0:50:54:e1:37:6b:2b:dc:78:66:94:7e:4c
-----BEGIN CERTIFICATE-----
MIIDjzCCAxWgAwIBAgIQGEk1dtorr7He7Xi/L6zqTjAKBggqhkjOPQQDBDAVMRMw
EQYDVQQDDApFYXN5LURDLUNBMB4XDTIyMDkxMzIwMzc0OVoXDTI1MDgyODIwMzc0
OVowgcIxCzAJBgNVBAYTAkNPMREwDwYDVQQIDAhDb2xvbWJpYTEPMA0GA1UEBwwG
Qm9nb3RhMRYwFAYDVQQKDA1FYXN5LURDLmxvY2FsMRMwEQYDVQQLDApUZWNub2xv
Z2lhMSgwJgYDVQQDDB9qZW5raW5zLmdpb3ZhbmVtZXJlLm1pbmlrdWJlLmlvMTgw
NgYJKoZIhvcNAQkBFilhZG1pbkBqZW5raW5zLmdpb3ZhbmVtZXJlLm1pbmlrdWJl
LmlvLmNvbTCCASIwDQYJKoZIhvcNAQEBBQADggEPADCCAQoCggEBAKykCEynHRkX
j3CJ3/F9teaMFT/ZUe8+iVVCXKD8DZcJW9h9z4JN+2L/gysEG0jGsklOjZhtLUXD
zDipt8upTSReGCXV8azXoVW7Z0lHLidK1mcmhS4q+ewiZflouAHWQ0nRmG/KdIv4
jfsj33AuURYmTdXC2nn0ACa0oy8ZH8fwlVo7DYEc9sVUKcX4RuDEcXZyLpMLzgNo
IvCMgKGqyFb4ydFQmYyPhJ7+PKFAn3WsUZWMRVWspqaA1W52K9uuXcfwGmF0ajMw
m/yWl/J0yxO4RRdfZMzuBUN7MdCHnBAPGW23OJRNOr0unKSrybJdxz0B6yQdpuYO
vJphkxh8vP8CAwEAAaOBzTCByjAJBgNVHRMEAjAAMB0GA1UdDgQWBBQhR8HXZgl/
nMJacV6h73rBuEoHOTBQBgNVHSMESTBHgBSCVVfbb0G5f9kiJxTWG9n7c2vqy6EZ
pBcwFTETMBEGA1UEAwwKRWFzeS1EQy1DQYIUHbRYGvrs9EoQ9OUESB8tNMOVVTsw
EwYDVR0lBAwwCgYIKwYBBQUHAwEwCwYDVR0PBAQDAgWgMCoGA1UdEQQjMCGCH2pl
bmtpbnMuZ2lvdmFuZW1lcmUubWluaWt1YmUuaW8wCgYIKoZIzj0EAwQDaAAwZQIw
DU4dc9LAYDjFKj+u3GAojWo1Br6pXJXP9bqPOXxUukhdmNXcMU/h4tyvPUhrazuu
AjEAvgkgKAonhmUDc63vTneByPr21jTAn+Zp8HdrwCGX7GR8tKXAUFThN2sr3Hhm
lH5M
-----END CERTIFICATE-----
